target datalayout = "e-m:e-p270:32:32-p271:32:32-p272:64:64-i64:64-i128:128-f80:128-n8:16:32:64-S128"
target triple = "x86_64-pc-linux-gnu"

%struct.unixsock_arg = type { ptr, i32, i64 }

; Function Attrs: nounwind sspstrong uwtable
define internal i64 @unixsock_connect_internal(i64 noundef %0) #0 {
  %2 = alloca i64, align 8
  %3 = alloca ptr, align 8
  store i64 %0, ptr %2, align 8, !tbaa !6
  call void @llvm.lifetime.start.p0(i64 8, ptr %3) #18
  %4 = load i64, ptr %2, align 8, !tbaa !6
  %5 = inttoptr i64 %4 to ptr
  store ptr %5, ptr %3, align 8, !tbaa !40
  %6 = load ptr, ptr %3, align 8, !tbaa !40
  %7 = getelementptr inbounds nuw %struct.unixsock_arg, ptr %6, i32 0, i32 2
  %8 = load i64, ptr %7, align 8, !tbaa !27
  %9 = load ptr, ptr %3, align 8, !tbaa !40
  %10 = getelementptr inbounds nuw %struct.unixsock_arg, ptr %9, i32 0, i32 0
  %11 = load ptr, ptr %10, align 8, !tbaa !24
  %12 = load ptr, ptr %3, align 8, !tbaa !40
  %13 = getelementptr inbounds nuw %struct.unixsock_arg, ptr %12, i32 0, i32 1
  %14 = load i32, ptr %13, align 8, !tbaa !26
  %15 = call i32 @rsock_connect(i64 noundef %8, ptr noundef %11, i32 noundef %14, i32 noundef 0, i64 noundef 4)
  %16 = sext i32 %15 to i64
  call void @llvm.lifetime.end.p0(i64 8, ptr %3) #18
  ret i64 %16
}