; Function Attrs: nounwind sspstrong uwtable
define internal range(i64 -2147483648, 2147483648) i64 @unixsock_connect_internal(i64 noundef %0) #0 {
  %2 = inttoptr i64 %0 to ptr
  %3 = getelementptr inbounds nuw i8, ptr %2, i64 16
  %4 = load i64, ptr %3, align 8, !tbaa !34
  %5 = load ptr, ptr %2, align 8, !tbaa !29
  %6 = getelementptr inbounds nuw i8, ptr %2, i64 8
  %7 = load i32, ptr %6, align 8, !tbaa !33
  %8 = tail call i32 @rsock_connect(i64 noundef %4, ptr noundef %5, i32 noundef %7, i32 noundef 0, i64 noundef 4) #7
  %9 = sext i32 %8 to i64
  ret i64 %9
}